target datalayout = "e-m:e-p270:32:32-p271:32:32-p272:64:64-i64:64-i128:128-f80:128-n8:16:32:64-S128"
target triple = "x86_64-pc-linux-gnu"

%struct.index_state = type { ptr, i32, i32, i32, i32, ptr, ptr, ptr, %struct.cache_time, i8, i32, %struct.hashmap, %struct.hashmap, %struct.object_id, ptr, ptr, ptr, ptr, ptr, ptr, ptr }
%struct.cache_time = type { i32, i32 }
%struct.hashmap = type { ptr, ptr, ptr, i32, i32, i32, i32, i8 }
%struct.object_id = type { [32 x i8], i32 }
%struct.cache_entry = type { %struct.hashmap_entry, %struct.stat_data, i32, i32, i32, i32, i32, %struct.object_id, [0 x i8] }
%struct.hashmap_entry = type { ptr, i32 }
%struct.stat_data = type { %struct.cache_time, %struct.cache_time, i32, i32, i32, i32, i32 }

; Function Attrs: nounwind uwtable
define internal i32 @is_racy_stat(ptr noundef %0, ptr noundef %1) #0 {
  %3 = alloca ptr, align 8
  %4 = alloca ptr, align 8
  store ptr %0, ptr %3, align 8, !tbaa !4
  store ptr %1, ptr %4, align 8, !tbaa !42
  %5 = load ptr, ptr %3, align 8, !tbaa !4
  %6 = getelementptr inbounds nuw %struct.index_state, ptr %5, i32 0, i32 8
  %7 = getelementptr inbounds nuw %struct.cache_time, ptr %6, i32 0, i32 0
  %8 = load i32, ptr %7, align 8, !tbaa !44
  %9 = icmp ne i32 %8, 0
  br i1 %9, label %10, label %20

10:                                               ; preds = %2
  %11 = load ptr, ptr %3, align 8, !tbaa !4
  %12 = getelementptr inbounds nuw %struct.index_state, ptr %11, i32 0, i32 8
  %13 = getelementptr inbounds nuw %struct.cache_time, ptr %12, i32 0, i32 0
  %14 = load i32, ptr %13, align 8, !tbaa !44
  %15 = load ptr, ptr %4, align 8, !tbaa !42
  %16 = getelementptr inbounds nuw %struct.stat_data, ptr %15, i32 0, i32 1
  %17 = getelementptr inbounds nuw %struct.cache_time, ptr %16, i32 0, i32 0
  %18 = load i32, ptr %17, align 4, !tbaa !45
  %19 = icmp ule i32 %14, %18
  br label %20

20:                                               ; preds = %10, %2
  %21 = phi i1 [ false, %2 ], [ %19, %10 ]
  %22 = zext i1 %21 to i32
  ret i32 %22
}

; Function Attrs: nounwind uwtable
define dso_local i32 @is_racy_timestamp(ptr noundef %0, ptr noundef %1) #0 {
  %3 = alloca ptr, align 8
  %4 = alloca ptr, align 8
  store ptr %0, ptr %3, align 8, !tbaa !4
  store ptr %1, ptr %4, align 8, !tbaa !29
  %5 = load ptr, ptr %4, align 8, !tbaa !29
  %6 = getelementptr inbounds nuw %struct.cache_entry, ptr %5, i32 0, i32 2
  %7 = load i32, ptr %6, align 4, !tbaa !9
  %8 = and i32 %7, 61440
  %9 = icmp eq i32 %8, 57344
  br i1 %9, label %16, label %10

10:                                               ; preds = %2
  %11 = load ptr, ptr %3, align 8, !tbaa !4
  %12 = load ptr, ptr %4, align 8, !tbaa !29
  %13 = getelementptr inbounds nuw %struct.cache_entry, ptr %12, i32 0, i32 1
  %14 = call i32 @is_racy_stat(ptr noundef %11, ptr noundef %13)
  %15 = icmp ne i32 %14, 0
  br label %16

16:                                               ; preds = %10, %2
  %17 = phi i1 [ false, %2 ], [ %15, %10 ]
  %18 = zext i1 %17 to i32
  ret i32 %18
}

; Function Attrs: nounwind uwtable
define dso_local i32 @ie_match_stat(ptr noundef %0, ptr noundef %1, ptr noundef %2, i32 noundef %3) #0 {
  %5 = alloca i32, align 4
  %6 = alloca ptr, align 8
  %7 = alloca ptr, align 8
  %8 = alloca ptr, align 8
  %9 = alloca i32, align 4
  %10 = alloca i32, align 4
  %11 = alloca i32, align 4
  %12 = alloca i32, align 4
  %13 = alloca i32, align 4
  %14 = alloca i32, align 4
  %15 = alloca i32, align 4
  store ptr %0, ptr %6, align 8, !tbaa !4
  store ptr %1, ptr %7, align 8, !tbaa !29
  store ptr %2, ptr %8, align 8, !tbaa !36
  store i32 %3, ptr %9, align 4, !tbaa !9
  call void @llvm.lifetime.start.p0(i64 4, ptr %10) #12
  call void @llvm.lifetime.start.p0(i64 4, ptr %11) #12
  %16 = load i32, ptr %9, align 4, !tbaa !9
  %17 = and i32 %16, 1
  store i32 %17, ptr %11, align 4, !tbaa !9
  call void @llvm.lifetime.start.p0(i64 4, ptr %12) #12
  %18 = load i32, ptr %9, align 4, !tbaa !9
  %19 = and i32 %18, 4
  store i32 %19, ptr %12, align 4, !tbaa !9
  call void @llvm.lifetime.start.p0(i64 4, ptr %13) #12
  %20 = load i32, ptr %9, align 4, !tbaa !9
  %21 = and i32 %20, 2
  store i32 %21, ptr %13, align 4, !tbaa !9
  call void @llvm.lifetime.start.p0(i64 4, ptr %14) #12
  %22 = load i32, ptr %9, align 4, !tbaa !9
  %23 = and i32 %22, 32
  store i32 %23, ptr %14, align 4, !tbaa !9
  %24 = load i32, ptr %14, align 4, !tbaa !9
  %25 = icmp ne i32 %24, 0
  br i1 %25, label %28, label %26

26:                                               ; preds = %4
  %27 = load ptr, ptr %6, align 8, !tbaa !4
  call void @refresh_fsmonitor(ptr noundef %27)
  br label %28

28:                                               ; preds = %26, %4
  %29 = load i32, ptr %12, align 4, !tbaa !9
  %30 = icmp ne i32 %29, 0
  br i1 %30, label %38, label %31

31:                                               ; preds = %28
  %32 = load ptr, ptr %7, align 8, !tbaa !29
  %33 = getelementptr inbounds nuw %struct.cache_entry, ptr %32, i32 0, i32 3
  %34 = load i32, ptr %33, align 8, !tbaa !9
  %35 = and i32 %34, 1073741824
  %36 = icmp ne i32 %35, 0
  br i1 %36, label %37, label %38

37:                                               ; preds = %31
  store i32 0, ptr %5, align 4
  store i32 1, ptr %15, align 4
  br label %92

38:                                               ; preds = %31, %28
  %39 = load i32, ptr %11, align 4, !tbaa !9
  %40 = icmp ne i32 %39, 0
  br i1 %40, label %48, label %41

41:                                               ; preds = %38
  %42 = load ptr, ptr %7, align 8, !tbaa !29
  %43 = getelementptr inbounds nuw %struct.cache_entry, ptr %42, i32 0, i32 3
  %44 = load i32, ptr %43, align 8, !tbaa !9
  %45 = and i32 %44, 32768
  %46 = icmp ne i32 %45, 0
  br i1 %46, label %47, label %48

47:                                               ; preds = %41
  store i32 0, ptr %5, align 4
  store i32 1, ptr %15, align 4
  br label %92

48:                                               ; preds = %41, %38
  %49 = load i32, ptr %14, align 4, !tbaa !9
  %50 = icmp ne i32 %49, 0
  br i1 %50, label %58, label %51

51:                                               ; preds = %48
  %52 = load ptr, ptr %7, align 8, !tbaa !29
  %53 = getelementptr inbounds nuw %struct.cache_entry, ptr %52, i32 0, i32 3
  %54 = load i32, ptr %53, align 8, !tbaa !9
  %55 = and i32 %54, 2097152
  %56 = icmp ne i32 %55, 0
  br i1 %56, label %57, label %58

57:                                               ; preds = %51
  store i32 0, ptr %5, align 4
  store i32 1, ptr %15, align 4
  br label %92

58:                                               ; preds = %51, %48
  %59 = load ptr, ptr %7, align 8, !tbaa !29
  %60 = getelementptr inbounds nuw %struct.cache_entry, ptr %59, i32 0, i32 3
  %61 = load i32, ptr %60, align 8, !tbaa !9
  %62 = and i32 %61, 536870912
  %63 = icmp ne i32 %62, 0
  br i1 %63, label %64, label %65

64:                                               ; preds = %58
  store i32 104, ptr %5, align 4
  store i32 1, ptr %15, align 4
  br label %92

65:                                               ; preds = %58
  %66 = load ptr, ptr %7, align 8, !tbaa !29
  %67 = load ptr, ptr %8, align 8, !tbaa !36
  %68 = call i32 @ce_match_stat_basic(ptr noundef %66, ptr noundef %67)
  store i32 %68, ptr %10, align 4, !tbaa !9
  %69 = load i32, ptr %10, align 4, !tbaa !9
  %70 = icmp ne i32 %69, 0
  br i1 %70, label %90, label %71

71:                                               ; preds = %65
  %72 = load ptr, ptr %6, align 8, !tbaa !4
  %73 = load ptr, ptr %7, align 8, !tbaa !29
  %74 = call i32 @is_racy_timestamp(ptr noundef %72, ptr noundef %73)
  %75 = icmp ne i32 %74, 0
  br i1 %75, label %76, label %90

76:                                               ; preds = %71
  %77 = load i32, ptr %13, align 4, !tbaa !9
  %78 = icmp ne i32 %77, 0
  br i1 %78, label %79, label %82

79:                                               ; preds = %76
  %80 = load i32, ptr %10, align 4, !tbaa !9
  %81 = or i32 %80, 32
  store i32 %81, ptr %10, align 4, !tbaa !9
  br label %89

82:                                               ; preds = %76
  %83 = load ptr, ptr %6, align 8, !tbaa !4
  %84 = load ptr, ptr %7, align 8, !tbaa !29
  %85 = load ptr, ptr %8, align 8, !tbaa !36
  %86 = call i32 @ce_modified_check_fs(ptr noundef %83, ptr noundef %84, ptr noundef %85)
  %87 = load i32, ptr %10, align 4, !tbaa !9
  %88 = or i32 %87, %86
  store i32 %88, ptr %10, align 4, !tbaa !9
  br label %89

89:                                               ; preds = %82, %79
  br label %90

90:                                               ; preds = %89, %71, %65
  %91 = load i32, ptr %10, align 4, !tbaa !9
  store i32 %91, ptr %5, align 4
  store i32 1, ptr %15, align 4
  br label %92

92:                                               ; preds = %90, %64, %57, %47, %37
  call void @llvm.lifetime.end.p0(i64 4, ptr %14) #12
  call void @llvm.lifetime.end.p0(i64 4, ptr %13) #12
  call void @llvm.lifetime.end.p0(i64 4, ptr %12) #12
  call void @llvm.lifetime.end.p0(i64 4, ptr %11) #12
  call void @llvm.lifetime.end.p0(i64 4, ptr %10) #12
  %93 = load i32, ptr %5, align 4
  ret i32 %93
}