; Function Attrs: nounwind uwtable
define dso_local i32 @ie_match_stat(ptr noundef %0, ptr noundef %1, ptr noundef %2, i32 noundef %3) local_unnamed_addr #0 {
  %5 = and i32 %3, 1
  %6 = and i32 %3, 4
  %7 = and i32 %3, 2
  %8 = and i32 %3, 32
  %.not = icmp ne i32 %8, 0
  br i1 %.not, label %10, label %9

9:                                                ; preds = %4
  tail call void @refresh_fsmonitor(ptr noundef %0) #30
  br label %10

10:                                               ; preds = %9, %4
  %.not27 = icmp eq i32 %6, 0
  br i1 %.not27, label %11, label %15

11:                                               ; preds = %10
  %12 = getelementptr inbounds nuw i8, ptr %1, i64 56
  %13 = load i32, ptr %12, align 8, !tbaa !32
  %14 = and i32 %13, 1073741824
  %.not28 = icmp eq i32 %14, 0
  br i1 %.not28, label %15, label %is_racy_timestamp.exit.thread

15:                                               ; preds = %11, %10
  %.not29 = icmp eq i32 %5, 0
  br i1 %.not29, label %16, label %20

16:                                               ; preds = %15
  %17 = getelementptr inbounds nuw i8, ptr %1, i64 56
  %18 = load i32, ptr %17, align 8, !tbaa !32
  %19 = and i32 %18, 32768
  %.not30 = icmp eq i32 %19, 0
  br i1 %.not30, label %20, label %is_racy_timestamp.exit.thread

20:                                               ; preds = %16, %15
  %21 = getelementptr inbounds nuw i8, ptr %1, i64 56
  %22 = load i32, ptr %21, align 8, !tbaa !32
  %23 = and i32 %22, 2097152
  %.not31 = icmp eq i32 %23, 0
  %or.cond = select i1 %.not, i1 true, i1 %.not31
  br i1 %or.cond, label %._crit_edge, label %is_racy_timestamp.exit.thread

._crit_edge:                                      ; preds = %20
  %24 = and i32 %22, 536870912
  %.not32 = icmp eq i32 %24, 0
  br i1 %.not32, label %25, label %is_racy_timestamp.exit.thread

25:                                               ; preds = %._crit_edge
  %26 = tail call fastcc i32 @ce_match_stat_basic(ptr noundef nonnull %1, ptr noundef %2)
  %.not33 = icmp eq i32 %26, 0
  br i1 %.not33, label %27, label %is_racy_timestamp.exit.thread

27:                                               ; preds = %25
  %28 = getelementptr inbounds nuw i8, ptr %1, i64 52
  %29 = load i32, ptr %28, align 4, !tbaa !32
  %30 = and i32 %29, 61440
  %31 = icmp eq i32 %30, 57344
  br i1 %31, label %is_racy_timestamp.exit.thread, label %32

32:                                               ; preds = %27
  %33 = getelementptr i8, ptr %0, i64 48
  %.val.i = load i32, ptr %33, align 8, !tbaa !49
  %.not.i.i = icmp eq i32 %.val.i, 0
  br i1 %.not.i.i, label %is_racy_timestamp.exit.thread, label %is_racy_timestamp.exit

is_racy_timestamp.exit:                           ; preds = %32
  %34 = getelementptr inbounds nuw i8, ptr %1, i64 24
  %35 = load i32, ptr %34, align 4, !tbaa !50
  %.not37 = icmp ugt i32 %.val.i, %35
  br i1 %.not37, label %is_racy_timestamp.exit.thread, label %36

36:                                               ; preds = %is_racy_timestamp.exit
  %.not35 = icmp eq i32 %7, 0
  br i1 %.not35, label %37, label %is_racy_timestamp.exit.thread

37:                                               ; preds = %36
  %38 = tail call fastcc i32 @ce_modified_check_fs(ptr noundef nonnull %0, ptr noundef nonnull %1, ptr noundef %2)
  br label %is_racy_timestamp.exit.thread

is_racy_timestamp.exit.thread:                    ; preds = %20, %32, %27, %25, %is_racy_timestamp.exit, %37, %36, %._crit_edge, %16, %11
  %.0 = phi i32 [ 0, %11 ], [ 0, %16 ], [ 104, %._crit_edge ], [ %26, %25 ], [ %38, %37 ], [ 0, %is_racy_timestamp.exit ], [ 32, %36 ], [ 0, %27 ], [ 0, %32 ], [ 0, %20 ]
  ret i32 %.0
}